; ModuleID = '51/369.c'
source_filename = "51/369.c"
target datalayout = "e-m:e-p270:32:32-p271:32:32-p272:64:64-i64:64-f80:128-n8:16:32:64-S128"
target triple = "x86_64-pc-linux-gnu"

@.str = private unnamed_addr constant [4 x i8] c"%d\0A\00", align 1
@.str.1 = private unnamed_addr constant [3 x i8] c"NO\00", align 1

; Function Attrs: noinline nounwind uwtable
define dso_local i32 @main() #0 {
  %1 = alloca i32, align 4
  %2 = alloca i32, align 4
  %3 = alloca i32, align 4
  %4 = alloca i32, align 4
  %5 = alloca i32, align 4
  %6 = alloca i32, align 4
  %7 = alloca [5000 x i8], align 16
  %8 = alloca [3000 x [6 x i8]], align 16
  %9 = alloca [3000 x i32], align 16
  %10 = alloca [3000 x i32], align 16
  store i32 0, i32* %1, align 4
  %11 = bitcast [5000 x i8]* %7 to i8*
  call void @llvm.memset.p0i8.i64(i8* align 16 %11, i8 0, i64 5000, i1 false)
  %12 = bitcast [3000 x [6 x i8]]* %8 to i8*
  call void @llvm.memset.p0i8.i64(i8* align 16 %12, i8 0, i64 18000, i1 false)
  %13 = bitcast [3000 x i32]* %9 to i8*
  call void @llvm.memset.p0i8.i64(i8* align 16 %13, i8 0, i64 12000, i1 false)
  %14 = bitcast [3000 x i32]* %10 to i8*
  call void @llvm.memset.p0i8.i64(i8* align 16 %14, i8 0, i64 12000, i1 false)
  %15 = call i32 (i8*, ...) @__isoc99_scanf(i8* getelementptr inbounds ([4 x i8], [4 x i8]* @.str, i64 0, i64 0), i32* %2)
  %16 = getelementptr inbounds [5000 x i8], [5000 x i8]* %7, i64 0, i64 0
  %17 = call i32 (i8*, ...) bitcast (i32 (...)* @gets to i32 (i8*, ...)*)(i8* %16)
  %18 = getelementptr inbounds [5000 x i8], [5000 x i8]* %7, i64 0, i64 0
  %19 = call i64 @strlen(i8* %18) #4
  %20 = load i32, i32* %2, align 4
  %21 = sext i32 %20 to i64
  %22 = sub i64 %19, %21
  %23 = add i64 %22, 1
  %24 = trunc i64 %23 to i32
  store i32 %24, i32* %6, align 4
  store i32 0, i32* %3, align 4
  br label %25

25:                                               ; preds = %51, %0
  %26 = load i32, i32* %3, align 4
  %27 = load i32, i32* %6, align 4
  %28 = icmp slt i32 %26, %27
  br i1 %28, label %29, label %54

29:                                               ; preds = %25
  store i32 0, i32* %4, align 4
  br label %30

30:                                               ; preds = %47, %29
  %31 = load i32, i32* %4, align 4
  %32 = load i32, i32* %2, align 4
  %33 = icmp slt i32 %31, %32
  br i1 %33, label %34, label %50

34:                                               ; preds = %30
  %35 = load i32, i32* %3, align 4
  %36 = load i32, i32* %4, align 4
  %37 = add nsw i32 %35, %36
  %38 = sext i32 %37 to i64
  %39 = getelementptr inbounds [5000 x i8], [5000 x i8]* %7, i64 0, i64 %38
  %40 = load i8, i8* %39, align 1
  %41 = load i32, i32* %3, align 4
  %42 = sext i32 %41 to i64
  %43 = getelementptr inbounds [3000 x [6 x i8]], [3000 x [6 x i8]]* %8, i64 0, i64 %42
  %44 = load i32, i32* %4, align 4
  %45 = sext i32 %44 to i64
  %46 = getelementptr inbounds [6 x i8], [6 x i8]* %43, i64 0, i64 %45
  store i8 %40, i8* %46, align 1
  br label %47

47:                                               ; preds = %34
  %48 = load i32, i32* %4, align 4
  %49 = add nsw i32 %48, 1
  store i32 %49, i32* %4, align 4
  br label %30

50:                                               ; preds = %30
  br label %51

51:                                               ; preds = %50
  %52 = load i32, i32* %3, align 4
  %53 = add nsw i32 %52, 1
  store i32 %53, i32* %3, align 4
  br label %25

54:                                               ; preds = %25
  store i32 0, i32* %3, align 4
  br label %55

55:                                               ; preds = %91, %54
  %56 = load i32, i32* %3, align 4
  %57 = load i32, i32* %6, align 4
  %58 = icmp slt i32 %56, %57
  br i1 %58, label %59, label %94

59:                                               ; preds = %55
  %60 = load i32, i32* %3, align 4
  %61 = add nsw i32 %60, 1
  store i32 %61, i32* %4, align 4
  br label %62

62:                                               ; preds = %87, %59
  %63 = load i32, i32* %4, align 4
  %64 = load i32, i32* %6, align 4
  %65 = icmp slt i32 %63, %64
  br i1 %65, label %66, label %90

66:                                               ; preds = %62
  %67 = load i32, i32* %4, align 4
  %68 = sext i32 %67 to i64
  %69 = getelementptr inbounds [3000 x [6 x i8]], [3000 x [6 x i8]]* %8, i64 0, i64 %68
  %70 = getelementptr inbounds [6 x i8], [6 x i8]* %69, i64 0, i64 0
  %71 = load i32, i32* %3, align 4
  %72 = sext i32 %71 to i64
  %73 = getelementptr inbounds [3000 x [6 x i8]], [3000 x [6 x i8]]* %8, i64 0, i64 %72
  %74 = getelementptr inbounds [6 x i8], [6 x i8]* %73, i64 0, i64 0
  %75 = call i32 @strcmp(i8* %70, i8* %74) #4
  %76 = icmp eq i32 %75, 0
  br i1 %76, label %77, label %86

77:                                               ; preds = %66
  %78 = load i32, i32* %3, align 4
  %79 = sext i32 %78 to i64
  %80 = getelementptr inbounds [3000 x i32], [3000 x i32]* %9, i64 0, i64 %79
  %81 = load i32, i32* %80, align 4
  %82 = add nsw i32 %81, 1
  store i32 %82, i32* %80, align 4
  %83 = load i32, i32* %4, align 4
  %84 = sext i32 %83 to i64
  %85 = getelementptr inbounds [3000 x i32], [3000 x i32]* %10, i64 0, i64 %84
  store i32 1, i32* %85, align 4
  br label %86

86:                                               ; preds = %77, %66
  br label %87

87:                                               ; preds = %86
  %88 = load i32, i32* %4, align 4
  %89 = add nsw i32 %88, 1
  store i32 %89, i32* %4, align 4
  br label %62

90:                                               ; preds = %62
  br label %91

91:                                               ; preds = %90
  %92 = load i32, i32* %3, align 4
  %93 = add nsw i32 %92, 1
  store i32 %93, i32* %3, align 4
  br label %55

94:                                               ; preds = %55
  %95 = getelementptr inbounds [3000 x i32], [3000 x i32]* %9, i64 0, i64 0
  %96 = load i32, i32* %95, align 16
  store i32 %96, i32* %5, align 4
  store i32 1, i32* %3, align 4
  br label %97

97:                                               ; preds = %114, %94
  %98 = load i32, i32* %3, align 4
  %99 = load i32, i32* %6, align 4
  %100 = icmp slt i32 %98, %99
  br i1 %100, label %101, label %117

101:                                              ; preds = %97
  %102 = load i32, i32* %3, align 4
  %103 = sext i32 %102 to i64
  %104 = getelementptr inbounds [3000 x i32], [3000 x i32]* %9, i64 0, i64 %103
  %105 = load i32, i32* %104, align 4
  %106 = load i32, i32* %5, align 4
  %107 = icmp sgt i32 %105, %106
  br i1 %107, label %108, label %113

108:                                              ; preds = %101
  %109 = load i32, i32* %3, align 4
  %110 = sext i32 %109 to i64
  %111 = getelementptr inbounds [3000 x i32], [3000 x i32]* %9, i64 0, i64 %110
  %112 = load i32, i32* %111, align 4
  store i32 %112, i32* %5, align 4
  br label %113

113:                                              ; preds = %108, %101
  br label %114

114:                                              ; preds = %113
  %115 = load i32, i32* %3, align 4
  %116 = add nsw i32 %115, 1
  store i32 %116, i32* %3, align 4
  br label %97

117:                                              ; preds = %97
  %118 = load i32, i32* %5, align 4
  %119 = icmp eq i32 %118, 0
  br i1 %119, label %120, label %122

120:                                              ; preds = %117
  %121 = call i32 (i8*, ...) @printf(i8* getelementptr inbounds ([3 x i8], [3 x i8]* @.str.1, i64 0, i64 0))
  br label %148

122:                                              ; preds = %117
  %123 = load i32, i32* %5, align 4
  %124 = add nsw i32 %123, 1
  %125 = call i32 (i8*, ...) @printf(i8* getelementptr inbounds ([4 x i8], [4 x i8]* @.str, i64 0, i64 0), i32 %124)
  store i32 0, i32* %3, align 4
  br label %126

126:                                              ; preds = %144, %122
  %127 = load i32, i32* %3, align 4
  %128 = load i32, i32* %6, align 4
  %129 = icmp slt i32 %127, %128
  br i1 %129, label %130, label %147

130:                                              ; preds = %126
  %131 = load i32, i32* %3, align 4
  %132 = sext i32 %131 to i64
  %133 = getelementptr inbounds [3000 x i32], [3000 x i32]* %9, i64 0, i64 %132
  %134 = load i32, i32* %133, align 4
  %135 = load i32, i32* %5, align 4
  %136 = icmp eq i32 %134, %135
  br i1 %136, label %137, label %143

137:                                              ; preds = %130
  %138 = load i32, i32* %3, align 4
  %139 = sext i32 %138 to i64
  %140 = getelementptr inbounds [3000 x [6 x i8]], [3000 x [6 x i8]]* %8, i64 0, i64 %139
  %141 = getelementptr inbounds [6 x i8], [6 x i8]* %140, i64 0, i64 0
  %142 = call i32 @puts(i8* %141)
  br label %143

143:                                              ; preds = %137, %130
  br label %144

144:                                              ; preds = %143
  %145 = load i32, i32* %3, align 4
  %146 = add nsw i32 %145, 1
  store i32 %146, i32* %3, align 4
  br label %126

147:                                              ; preds = %126
  br label %148

148:                                              ; preds = %147, %120
  %149 = load i32, i32* %1, align 4
  ret i32 %149
}

; Function Attrs: argmemonly nounwind willreturn
declare void @llvm.memset.p0i8.i64(i8* nocapture writeonly, i8, i64, i1 immarg) #1

declare dso_local i32 @__isoc99_scanf(i8*, ...) #2

declare dso_local i32 @gets(...) #2

; Function Attrs: nounwind readonly
declare dso_local i64 @strlen(i8*) #3

; Function Attrs: nounwind readonly
declare dso_local i32 @strcmp(i8*, i8*) #3

declare dso_local i32 @printf(i8*, ...) #2

declare dso_local i32 @puts(i8*) #2


!llvm.module.flags = !{!0}
!llvm.ident = !{!1}

!0 = !{i32 1, !"wchar_size", i32 4}
!1 = !{!"clang version 10.0.0-4ubuntu1 "}
